target datalayout = "e-m:e-p270:32:32-p271:32:32-p272:64:64-i64:64-i128:128-f80:128-n8:16:32:64-S128"
target triple = "x86_64-pc-linux-gnu"

%struct._proto_node = type { ptr, ptr, ptr, ptr, ptr, ptr, ptr }
%struct.field_info = type { ptr, i32, i32, i32, i32, i32, i32, ptr, ptr, ptr, i32, i32 }
%struct.anon.3 = type { i32, i32 }

@hf_ipv6_6to4_gateway_ipv4 = internal global i32 0, align 4
@hf_ipv6_6to4_sla_id = internal global i32 0, align 4

; Function Attrs: inlinehint nounwind null_pointer_is_valid sspstrong uwtable
define internal void @proto_item_set_hidden(ptr noundef %0) #7 {
  %2 = alloca ptr, align 8
  store ptr %0, ptr %2, align 8
  %3 = load ptr, ptr %2, align 8
  %4 = icmp ne ptr %3, null
  br i1 %4, label %5, label %24

5:                                                ; preds = %1
  br label %6

6:                                                ; preds = %5
  %7 = load ptr, ptr %2, align 8
  %8 = getelementptr inbounds nuw %struct._proto_node, ptr %7, i32 0, i32 5
  %9 = load ptr, ptr %8, align 8
  %10 = icmp ne ptr %9, null
  br i1 %10, label %11, label %22

11:                                               ; preds = %6
  %12 = load ptr, ptr %2, align 8
  %13 = getelementptr inbounds nuw %struct._proto_node, ptr %12, i32 0, i32 5
  %14 = load ptr, ptr %13, align 8
  %15 = getelementptr inbounds nuw %struct.field_info, ptr %14, i32 0, i32 6
  %16 = load i32, ptr %15, align 4
  %17 = or i32 %16, 1
  %18 = load ptr, ptr %2, align 8
  %19 = getelementptr inbounds nuw %struct._proto_node, ptr %18, i32 0, i32 5
  %20 = load ptr, ptr %19, align 8
  %21 = getelementptr inbounds nuw %struct.field_info, ptr %20, i32 0, i32 6
  store i32 %17, ptr %21, align 4
  br label %22

22:                                               ; preds = %11, %6
  br label %23

23:                                               ; preds = %22
  br label %24

24:                                               ; preds = %23, %1
  ret void
}

; Function Attrs: inlinehint nounwind null_pointer_is_valid sspstrong uwtable
define internal void @proto_item_set_generated(ptr noundef %0) #7 {
  %2 = alloca ptr, align 8
  store ptr %0, ptr %2, align 8
  %3 = load ptr, ptr %2, align 8
  %4 = icmp ne ptr %3, null
  br i1 %4, label %5, label %24

5:                                                ; preds = %1
  br label %6

6:                                                ; preds = %5
  %7 = load ptr, ptr %2, align 8
  %8 = getelementptr inbounds nuw %struct._proto_node, ptr %7, i32 0, i32 5
  %9 = load ptr, ptr %8, align 8
  %10 = icmp ne ptr %9, null
  br i1 %10, label %11, label %22

11:                                               ; preds = %6
  %12 = load ptr, ptr %2, align 8
  %13 = getelementptr inbounds nuw %struct._proto_node, ptr %12, i32 0, i32 5
  %14 = load ptr, ptr %13, align 8
  %15 = getelementptr inbounds nuw %struct.field_info, ptr %14, i32 0, i32 6
  %16 = load i32, ptr %15, align 4
  %17 = or i32 %16, 2
  %18 = load ptr, ptr %2, align 8
  %19 = getelementptr inbounds nuw %struct._proto_node, ptr %18, i32 0, i32 5
  %20 = load ptr, ptr %19, align 8
  %21 = getelementptr inbounds nuw %struct.field_info, ptr %20, i32 0, i32 6
  store i32 %17, ptr %21, align 4
  br label %22

22:                                               ; preds = %11, %6
  br label %23

23:                                               ; preds = %22
  br label %24

24:                                               ; preds = %23, %1
  ret void
}

; Function Attrs: null_pointer_is_valid sspstrong uwtable
define internal void @add_ipv6_address_6to4(ptr noundef %0, ptr noundef %1, i32 noundef %2, i32 noundef %3, i32 noundef %4) #0 {
  %6 = alloca ptr, align 8
  %7 = alloca ptr, align 8
  %8 = alloca i32, align 4
  %9 = alloca i32, align 4
  %10 = alloca i32, align 4
  %11 = alloca [2 x %struct.anon.3], align 16
  %12 = alloca ptr, align 8
  %13 = alloca i32, align 4
  store ptr %0, ptr %6, align 8
  store ptr %1, ptr %7, align 8
  store i32 %2, ptr %8, align 4
  store i32 %3, ptr %9, align 4
  store i32 %4, ptr %10, align 4
  %14 = load ptr, ptr %7, align 8
  %15 = load i32, ptr %8, align 4
  %16 = call zeroext i16 @tvb_get_ntohs(ptr noundef %14, i32 noundef %15)
  %17 = zext i16 %16 to i32
  %18 = icmp ne i32 %17, 8194
  br i1 %18, label %19, label %20

19:                                               ; preds = %5
  br label %77

20:                                               ; preds = %5
  call void @llvm.lifetime.start.p0(i64 16, ptr %11) #15
  %21 = getelementptr inbounds nuw %struct.anon.3, ptr %11, i32 0, i32 0
  %22 = load i32, ptr %9, align 4
  store i32 %22, ptr %21, align 8
  %23 = getelementptr inbounds nuw %struct.anon.3, ptr %11, i32 0, i32 1
  %24 = load i32, ptr %10, align 4
  store i32 %24, ptr %23, align 4
  %25 = getelementptr inbounds %struct.anon.3, ptr %11, i64 1
  %26 = getelementptr inbounds nuw %struct.anon.3, ptr %25, i32 0, i32 0
  %27 = load i32, ptr @hf_ipv6_6to4_gateway_ipv4, align 4
  store i32 %27, ptr %26, align 8
  %28 = getelementptr inbounds nuw %struct.anon.3, ptr %25, i32 0, i32 1
  %29 = load i32, ptr @hf_ipv6_6to4_sla_id, align 4
  store i32 %29, ptr %28, align 4
  call void @llvm.lifetime.start.p0(i64 8, ptr %12) #15
  call void @llvm.lifetime.start.p0(i64 4, ptr %13) #15
  store i32 0, ptr %13, align 4
  br label %30

30:                                               ; preds = %73, %20
  %31 = load i32, ptr %13, align 4
  %32 = icmp slt i32 %31, 2
  br i1 %32, label %34, label %33

33:                                               ; preds = %30
  call void @llvm.lifetime.end.p0(i64 4, ptr %13) #15
  br label %76

34:                                               ; preds = %30
  %35 = load ptr, ptr %6, align 8
  %36 = load i32, ptr %13, align 4
  %37 = sext i32 %36 to i64
  %38 = getelementptr [2 x %struct.anon.3], ptr %11, i64 0, i64 %37
  %39 = getelementptr inbounds nuw %struct.anon.3, ptr %38, i32 0, i32 0
  %40 = load i32, ptr %39, align 8
  %41 = load ptr, ptr %7, align 8
  %42 = load i32, ptr %8, align 4
  %43 = add i32 %42, 2
  %44 = call ptr @proto_tree_add_item(ptr noundef %35, i32 noundef %40, ptr noundef %41, i32 noundef %43, i32 noundef 4, i32 noundef 0)
  store ptr %44, ptr %12, align 8
  br label %45

45:                                               ; preds = %34
  %46 = load ptr, ptr %12, align 8
  call void @proto_item_set_generated(ptr noundef %46)
  %47 = load i32, ptr %13, align 4
  %48 = icmp sgt i32 %47, 0
  br i1 %48, label %49, label %51

49:                                               ; preds = %45
  %50 = load ptr, ptr %12, align 8
  call void @proto_item_set_hidden(ptr noundef %50)
  br label %51

51:                                               ; preds = %49, %45
  br label %52

52:                                               ; preds = %51
  br label %53

53:                                               ; preds = %52
  %54 = load ptr, ptr %6, align 8
  %55 = load i32, ptr %13, align 4
  %56 = sext i32 %55 to i64
  %57 = getelementptr [2 x %struct.anon.3], ptr %11, i64 0, i64 %56
  %58 = getelementptr inbounds nuw %struct.anon.3, ptr %57, i32 0, i32 1
  %59 = load i32, ptr %58, align 4
  %60 = load ptr, ptr %7, align 8
  %61 = load i32, ptr %8, align 4
  %62 = add i32 %61, 6
  %63 = call ptr @proto_tree_add_item(ptr noundef %54, i32 noundef %59, ptr noundef %60, i32 noundef %62, i32 noundef 2, i32 noundef 0)
  store ptr %63, ptr %12, align 8
  br label %64

64:                                               ; preds = %53
  %65 = load ptr, ptr %12, align 8
  call void @proto_item_set_generated(ptr noundef %65)
  %66 = load i32, ptr %13, align 4
  %67 = icmp sgt i32 %66, 0
  br i1 %67, label %68, label %70

68:                                               ; preds = %64
  %69 = load ptr, ptr %12, align 8
  call void @proto_item_set_hidden(ptr noundef %69)
  br label %70

70:                                               ; preds = %68, %64
  br label %71

71:                                               ; preds = %70
  br label %72

72:                                               ; preds = %71
  br label %73

73:                                               ; preds = %72
  %74 = load i32, ptr %13, align 4
  %75 = add i32 %74, 1
  store i32 %75, ptr %13, align 4
  br label %30, !llvm.loop !18

76:                                               ; preds = %33
  call void @llvm.lifetime.end.p0(i64 8, ptr %12) #15
  call void @llvm.lifetime.end.p0(i64 16, ptr %11) #15
  br label %77

77:                                               ; preds = %76, %19
  ret void
}