; Function Attrs: null_pointer_is_valid sspstrong uwtable
define internal fastcc void @add_ipv6_address_6to4(ptr noundef %0, ptr noundef %1, i32 noundef range(i32 8, 25) %2, i32 noundef %3, i32 noundef %4) unnamed_addr #0 {
  %6 = alloca [2 x %struct.anon.3], align 16
  %7 = tail call zeroext i16 @tvb_get_ntohs(ptr noundef %1, i32 noundef %2)
  %.not = icmp eq i16 %7, 8194
  %indvars.iv.sroa.gep34 = getelementptr inbounds nuw i8, ptr %6, i64 8
  br i1 %.not, label %8, label %50

8:                                                ; preds = %5
  call void @llvm.lifetime.start.p0(i64 16, ptr nonnull %6) #16
  store i32 %3, ptr %6, align 16
  %9 = getelementptr inbounds nuw i8, ptr %6, i64 4
  store i32 %4, ptr %9, align 4
  %10 = getelementptr inbounds nuw i8, ptr %6, i64 8
  %11 = load i32, ptr @hf_ipv6_6to4_gateway_ipv4, align 4
  store i32 %11, ptr %10, align 8
  %12 = getelementptr inbounds nuw i8, ptr %6, i64 12
  %13 = load i32, ptr @hf_ipv6_6to4_sla_id, align 4
  store i32 %13, ptr %12, align 4
  %14 = add nuw nsw i32 %2, 2
  %15 = add nuw nsw i32 %2, 6
  br label %17

16:                                               ; preds = %proto_item_set_hidden.exit26
  call void @llvm.lifetime.end.p0(i64 16, ptr nonnull %6) #16
  br label %50

17:                                               ; preds = %8, %proto_item_set_hidden.exit26
  %.not31 = phi i1 [ false, %8 ], [ true, %proto_item_set_hidden.exit26 ]
  %18 = phi i1 [ true, %8 ], [ false, %proto_item_set_hidden.exit26 ]
  %indvars.iv.sroa.phi = phi ptr [ %6, %8 ], [ %indvars.iv.sroa.gep34, %proto_item_set_hidden.exit26 ]
  %19 = load i32, ptr %indvars.iv.sroa.phi, align 8
  %20 = tail call ptr @proto_tree_add_item(ptr noundef %0, i32 noundef %19, ptr noundef %1, i32 noundef %14, i32 noundef 4, i32 noundef 0)
  %.not.i = icmp eq ptr %20, null
  br i1 %.not.i, label %proto_item_set_hidden.exit, label %21

21:                                               ; preds = %17
  %22 = getelementptr inbounds nuw i8, ptr %20, i64 40
  %23 = load ptr, ptr %22, align 8
  %.not5.i = icmp eq ptr %23, null
  br i1 %.not5.i, label %proto_item_set_generated.exit, label %24

24:                                               ; preds = %21
  %25 = getelementptr inbounds nuw i8, ptr %23, i64 28
  %26 = load i32, ptr %25, align 4
  %27 = or i32 %26, 2
  store i32 %27, ptr %25, align 4
  br label %proto_item_set_generated.exit

proto_item_set_generated.exit:                    ; preds = %21, %24
  br i1 %.not31, label %28, label %proto_item_set_hidden.exit

28:                                               ; preds = %proto_item_set_generated.exit
  %29 = load ptr, ptr %22, align 8
  %.not5.i20 = icmp eq ptr %29, null
  br i1 %.not5.i20, label %proto_item_set_hidden.exit, label %30

30:                                               ; preds = %28
  %31 = getelementptr inbounds nuw i8, ptr %29, i64 28
  %32 = load i32, ptr %31, align 4
  %33 = or i32 %32, 1
  store i32 %33, ptr %31, align 4
  br label %proto_item_set_hidden.exit

proto_item_set_hidden.exit:                       ; preds = %17, %proto_item_set_generated.exit, %30, %28
  %.not29 = phi i1 [ true, %proto_item_set_generated.exit ], [ false, %28 ], [ false, %30 ], [ %18, %17 ]
  %34 = getelementptr inbounds nuw i8, ptr %indvars.iv.sroa.phi, i64 4
  %35 = load i32, ptr %34, align 4
  %36 = tail call ptr @proto_tree_add_item(ptr noundef %0, i32 noundef %35, ptr noundef %1, i32 noundef %15, i32 noundef 2, i32 noundef 0)
  %.not.i21 = icmp eq ptr %36, null
  br i1 %.not.i21, label %proto_item_set_hidden.exit26, label %37

37:                                               ; preds = %proto_item_set_hidden.exit
  %38 = getelementptr inbounds nuw i8, ptr %36, i64 40
  %39 = load ptr, ptr %38, align 8
  %.not5.i22 = icmp eq ptr %39, null
  br i1 %.not5.i22, label %proto_item_set_generated.exit23, label %40

40:                                               ; preds = %37
  %41 = getelementptr inbounds nuw i8, ptr %39, i64 28
  %42 = load i32, ptr %41, align 4
  %43 = or i32 %42, 2
  store i32 %43, ptr %41, align 4
  br label %proto_item_set_generated.exit23

proto_item_set_generated.exit23:                  ; preds = %37, %40
  br i1 %.not29, label %proto_item_set_hidden.exit26, label %44

44:                                               ; preds = %proto_item_set_generated.exit23
  %45 = load ptr, ptr %38, align 8
  %.not5.i25 = icmp eq ptr %45, null
  br i1 %.not5.i25, label %proto_item_set_hidden.exit26, label %46

46:                                               ; preds = %44
  %47 = getelementptr inbounds nuw i8, ptr %45, i64 28
  %48 = load i32, ptr %47, align 4
  %49 = or i32 %48, 1
  store i32 %49, ptr %47, align 4
  br label %proto_item_set_hidden.exit26

proto_item_set_hidden.exit26:                     ; preds = %proto_item_set_generated.exit23, %proto_item_set_hidden.exit, %46, %44
  br i1 %18, label %17, label %16, !llvm.loop !20

50:                                               ; preds = %5, %16
  ret void
}